target datalayout = "e-m:e-p270:32:32-p271:32:32-p272:64:64-i64:64-i128:128-f80:128-n8:16:32:64-S128"
target triple = "x86_64-pc-linux-gnu"

%class.nullStream = type { %class.outputStream }
%class.outputStream = type { ptr, i32, i8, i32, i64, %class.TimeStamp, ptr, i64 }
%class.TimeStamp = type { i64 }
%class.fdStream = type <{ %class.outputStream, i32, [4 x i8] }>

@_ZL18tty_preinit_stream = internal global %class.nullStream zeroinitializer, align 8
@tty = hidden global ptr @_ZL18tty_preinit_stream, align 8
@xtty = hidden global ptr null, align 8
@_ZN8fdStream14_stdout_streamE = hidden global %class.fdStream zeroinitializer, align 8
@_ZN8fdStream14_stderr_streamE = hidden global %class.fdStream zeroinitializer, align 8
@_ZN13defaultStream8instanceE = hidden global ptr null, align 8
@_ZZ12ostream_exitvE19ostream_exit_called = internal global i8 0, align 1
@DisplayVMOutputToStderr = external global i8, align 1

; Function Attrs: mustprogress nounwind uwtable
define linkonce_odr hidden noundef ptr @_ZN8fdStream13stdout_streamEv() #1 comdat align 2 {
  ret ptr @_ZN8fdStream14_stdout_streamE
}

; Function Attrs: mustprogress nounwind uwtable
define linkonce_odr hidden noundef ptr @_ZN8fdStream13stderr_streamEv() #1 comdat align 2 {
  ret ptr @_ZN8fdStream14_stderr_streamE
}

; Function Attrs: mustprogress nounwind uwtable
define hidden void @_Z12ostream_exitv() #1 {
  %1 = alloca ptr, align 8
  %2 = load i8, ptr @_ZZ12ostream_exitvE19ostream_exit_called, align 1
  %3 = trunc i8 %2 to i1
  br i1 %3, label %4, label %5

4:                                                ; preds = %0
  br label %37

5:                                                ; preds = %0
  store i8 1, ptr @_ZZ12ostream_exitvE19ostream_exit_called, align 1
  call void @_ZN15ClassListWriter16delete_classlistEv()
  %6 = load ptr, ptr @tty, align 8
  store ptr %6, ptr %1, align 8
  %7 = load i8, ptr @DisplayVMOutputToStderr, align 1
  %8 = trunc i8 %7 to i1
  br i1 %8, label %9, label %11

9:                                                ; preds = %5
  %10 = call noundef ptr @_ZN8fdStream13stderr_streamEv()
  br label %13

11:                                               ; preds = %5
  %12 = call noundef ptr @_ZN8fdStream13stdout_streamEv()
  br label %13

13:                                               ; preds = %11, %9
  %14 = phi ptr [ %10, %9 ], [ %12, %11 ]
  store ptr %14, ptr @tty, align 8
  %15 = load ptr, ptr %1, align 8
  %16 = icmp ne ptr %15, @_ZL18tty_preinit_stream
  br i1 %16, label %17, label %29

17:                                               ; preds = %13
  %18 = load ptr, ptr %1, align 8
  %19 = load ptr, ptr @_ZN13defaultStream8instanceE, align 8
  %20 = icmp ne ptr %18, %19
  br i1 %20, label %21, label %29

21:                                               ; preds = %17
  %22 = load ptr, ptr %1, align 8
  %23 = icmp eq ptr %22, null
  br i1 %23, label %28, label %24

24:                                               ; preds = %21
  %25 = load ptr, ptr %22, align 8
  %26 = getelementptr inbounds ptr, ptr %25, i64 4
  %27 = load ptr, ptr %26, align 8
  call void %27(ptr noundef nonnull align 8 dereferenceable(56) %22) #6
  br label %28

28:                                               ; preds = %24, %21
  br label %29

29:                                               ; preds = %28, %17, %13
  %30 = load ptr, ptr @_ZN13defaultStream8instanceE, align 8
  %31 = icmp eq ptr %30, null
  br i1 %31, label %36, label %32

32:                                               ; preds = %29
  %33 = load ptr, ptr %30, align 8
  %34 = getelementptr inbounds ptr, ptr %33, i64 4
  %35 = load ptr, ptr %34, align 8
  call void %35(ptr noundef nonnull align 8 dereferenceable(96) %30) #6
  br label %36

36:                                               ; preds = %32, %29
  store ptr null, ptr @xtty, align 8
  store ptr null, ptr @_ZN13defaultStream8instanceE, align 8
  br label %37

37:                                               ; preds = %36, %4
  ret void
}