; Function Attrs: mustprogress nounwind uwtable
define hidden void @_Z12ostream_exitv() local_unnamed_addr #0 {
  %.b4 = load i1, ptr @_ZZ12ostream_exitvE19ostream_exit_called, align 1
  br i1 %.b4, label %19, label %1

1:                                                ; preds = %0
  store i1 true, ptr @_ZZ12ostream_exitvE19ostream_exit_called, align 1
  tail call void @_ZN15ClassListWriter16delete_classlistEv() #21
  %2 = load ptr, ptr @tty, align 8
  %3 = load i8, ptr @DisplayVMOutputToStderr, align 1
  %4 = trunc i8 %3 to i1
  %spec.select = select i1 %4, ptr @_ZN8fdStream14_stderr_streamE, ptr @_ZN8fdStream14_stdout_streamE
  store ptr %spec.select, ptr @tty, align 8
  %.not = icmp eq ptr %2, @_ZL18tty_preinit_stream
  %5 = load ptr, ptr @_ZN13defaultStream8instanceE, align 8
  %.not5 = icmp eq ptr %2, %5
  %or.cond = select i1 %.not, i1 true, i1 %.not5
  %6 = icmp eq ptr %2, null
  %or.cond6 = or i1 %6, %or.cond
  br i1 %or.cond6, label %11, label %7

7:                                                ; preds = %1
  %8 = load ptr, ptr %2, align 8
  %9 = getelementptr inbounds i8, ptr %8, i64 32
  %10 = load ptr, ptr %9, align 8
  tail call void %10(ptr noundef nonnull align 8 dereferenceable(56) %2) #21
  %.pr = load ptr, ptr @_ZN13defaultStream8instanceE, align 8
  br label %11

11:                                               ; preds = %7, %1
  %12 = phi ptr [ %.pr, %7 ], [ %5, %1 ]
  %13 = icmp eq ptr %12, null
  br i1 %13, label %18, label %14

14:                                               ; preds = %11
  %15 = load ptr, ptr %12, align 8
  %16 = getelementptr inbounds i8, ptr %15, i64 32
  %17 = load ptr, ptr %16, align 8
  tail call void %17(ptr noundef nonnull align 8 dereferenceable(96) %12) #21
  br label %18

18:                                               ; preds = %14, %11
  store ptr null, ptr @xtty, align 8
  store ptr null, ptr @_ZN13defaultStream8instanceE, align 8
  br label %19

19:                                               ; preds = %0, %18
  ret void
}